Certificate:
    Data:
        Version: 3 (0x2)
        Serial Number:
            6c:9f:ac:f7:c0:bf:14:f0:96:ec:ef:85:d5:67:73:4b:db:74:65:46
        Signature Algorithm: sha256WithRSAEncryption
        Issuer: C=ES, ST=Barcelona, O=Network Security Org, OU=Certification, CN=NS Root CA
        Validity
            Not Before: Feb 14 14:27:42 2022 GMT
            Not After : Feb 14 14:27:42 2023 GMT
        Subject: C=ES, ST=Barcelona, O=Network Security Org, OU=OCSP, CN=10.0.2.15
        Subject Public Key Info:
            Public Key Algorithm: rsaEncryption
                RSA Public-Key: (4096 bit)
                Modulus:
                    00:be:d5:8c:52:f2:56:41:48:57:43:ca:39:23:5f:
                    3e:71:33:0a:7b:f4:e0:3a:4f:9c:5d:e8:16:1a:82:
                    6b:f7:b8:d8:ad:d5:6f:7c:1f:a4:33:5e:9c:e4:5c:
                    61:96:7f:42:80:8b:31:80:4e:90:ec:ce:a0:8a:03:
                    13:d4:46:d4:09:ed:90:ce:f0:e3:3d:65:d7:24:19:
                    0a:4f:75:74:c0:60:12:8c:50:b3:78:37:ce:c3:47:
                    db:b9:e0:b7:54:4d:ca:db:17:95:fd:d0:5e:79:14:
                    0b:2f:9a:f3:af:d6:bd:58:65:03:df:6e:01:6b:70:
                    7d:a8:c3:53:35:b6:3c:61:36:ef:63:41:27:94:b7:
                    ac:9e:7c:90:10:f2:6e:6f:99:eb:96:3c:3f:37:82:
                    34:aa:cd:f4:34:c1:46:0b:64:b2:24:d7:e8:b0:17:
                    80:3b:40:80:14:d1:7d:d5:21:5f:8a:a7:5b:2a:bc:
                    fc:80:73:f7:20:96:bc:e2:41:ba:63:e9:60:94:12:
                    66:8b:ad:e4:5a:c4:50:5d:1e:b7:c6:a4:f3:63:7f:
                    de:fd:97:0d:5c:be:92:00:89:b6:17:47:58:02:ab:
                    ff:9d:3e:a7:5e:fb:59:27:97:3a:2e:e4:2e:29:95:
                    ee:98:61:44:b1:ff:67:bb:33:30:77:64:87:39:5c:
                    f0:be:30:3a:0d:75:3e:d8:53:2b:96:11:74:ec:d8:
                    91:44:10:42:37:55:35:7a:62:fe:1d:e5:1a:0c:f7:
                    23:f7:b9:70:04:28:f9:cc:86:73:e1:68:b0:1d:3b:
                    f2:c4:2d:a6:8f:4e:4a:8f:f7:9f:9f:57:0b:1c:e9:
                    76:d1:f4:22:9b:c7:f6:20:84:6f:cb:27:f0:cf:e9:
                    69:1b:6f:12:cd:a3:f0:10:4e:d2:cd:1c:56:ff:6f:
                    f7:0a:80:ac:4e:ac:e0:04:f0:7e:d9:17:aa:61:4c:
                    f0:e5:7b:ae:9e:58:7d:6d:5a:95:92:92:27:5a:7d:
                    e9:a4:99:97:00:55:48:b5:ed:9b:55:b4:8b:ce:7b:
                    06:99:a4:4e:f9:71:8b:8e:01:27:4d:13:4f:45:61:
                    31:fe:25:2e:37:42:69:a4:3c:50:65:eb:e7:89:90:
                    88:dc:48:e0:55:37:07:cb:f1:9a:52:30:9a:8d:7b:
                    a2:d8:7c:10:17:b4:0d:c1:fe:fc:ae:98:a1:6a:0e:
                    29:75:be:27:8e:e9:b9:f8:14:63:18:84:c1:3f:c5:
                    7f:fc:0b:6f:1b:e4:3c:ac:1b:62:c1:54:42:f9:99:
                    dd:db:b6:a5:13:8e:0b:90:78:b8:22:f2:db:b1:aa:
                    b9:68:c9:8c:84:6b:d3:59:0f:5b:a1:b4:41:de:04:
                    f0:95:d3
                Exponent: 65537 (0x10001)
        X509v3 extensions:
            X509v3 Basic Constraints: 
                CA:FALSE
            X509v3 Subject Key Identifier: 
                7B:D6:66:CE:B2:95:DF:7F:36:46:2C:1F:4E:4E:86:4F:87:DD:D6:A3
            X509v3 Authority Key Identifier: 
                keyid:A3:58:7D:8F:70:41:EA:92:31:DE:3B:E7:0B:71:4A:AB:ED:88:DE:27

            X509v3 Key Usage: critical
                Digital Signature
            X509v3 Extended Key Usage: critical
                OCSP Signing
    Signature Algorithm: sha256WithRSAEncryption
         4e:45:cc:3f:4f:16:48:29:7e:7f:85:9f:5b:df:4a:2b:d5:77:
         4b:00:67:8c:96:b9:0d:57:ec:2b:5c:8e:ff:b9:f9:52:f9:e6:
         92:d4:df:c7:48:93:46:2d:f7:d2:ef:f7:d0:93:5b:8d:df:40:
         76:8c:45:11:30:dc:e2:06:82:b4:ea:37:f5:50:ba:23:7b:d0:
         8c:a4:91:1c:5c:b0:ba:21:32:a2:99:de:be:57:de:ce:f2:aa:
         0e:0b:3c:28:a0:05:f0:ad:82:73:48:8b:25:8f:40:8d:2c:4e:
         53:f3:cb:e8:45:4f:e6:39:8b:b0:68:22:3a:9c:c3:91:44:86:
         8f:2b:b9:3f:3b:d4:8a:30:91:b5:30:fd:17:dc:28:fc:9f:17:
         7b:d3:a8:d9:a1:83:ff:c3:5e:1f:37:ac:a0:b9:38:7a:4c:e6:
         d5:26:57:f6:55:34:a3:71:e7:2e:11:81:ae:2f:32:ed:4b:8f:
         42:13:24:1d:b2:90:ae:09:e7:61:56:d1:4e:de:d6:42:2d:b9:
         28:0b:14:09:03:b3:30:49:5a:f8:52:ef:b6:de:3f:c0:5b:fb:
         11:5a:f0:0e:49:29:ba:bd:dc:e3:d6:82:25:54:c4:6c:78:39:
         5c:2f:78:1d:41:6b:49:c2:09:67:d3:bc:60:be:0a:75:f2:79:
         ff:c2:80:be:31:6f:d3:79:7e:fa:29:eb:79:c6:54:21:c2:cd:
         6e:81:99:5d:30:6b:7b:26:8e:2b:6e:cc:2d:44:10:29:50:28:
         81:0b:72:8d:94:9e:aa:6a:43:eb:67:a2:45:eb:60:81:7c:63:
         0d:34:68:82:ac:93:77:98:88:56:4c:5b:bc:3c:b9:71:c7:c4:
         33:26:56:66:64:bd:0e:50:91:d4:05:f2:60:b5:d8:e6:6c:5d:
         5b:f6:01:e6:6b:02:bc:ab:bc:e1:61:3c:bf:5d:79:64:aa:04:
         73:00:ce:23:f3:03:13:0b:b6:68:a1:64:eb:b3:b4:6d:01:4f:
         b5:ae:7d:ad:7a:a3:b7:aa:12:da:24:3a:da:31:2e:d2:3b:cc:
         9e:01:4e:0d:0b:21:af:f0:15:12:30:16:4c:ca:a4:33:9e:5a:
         45:52:d9:7b:ee:38:6e:4b:f2:6d:75:02:5a:aa:a3:fa:b0:b3:
         61:53:ae:7c:c3:79:22:26:60:6b:ef:b5:0b:71:54:c8:ed:ce:
         72:db:08:71:d1:0d:f0:36:e0:51:d3:b6:74:76:ee:f2:e4:8b:
         10:d3:f3:86:24:bd:97:ba:1c:39:7f:52:c5:86:98:12:f3:59:
         54:3f:40:de:86:6a:5a:8d:61:43:a8:3a:a1:86:4b:74:7a:98:
         22:7e:e2:ea:72:57:4e:48
-----BEGIN CERTIFICATE-----
MIIF0zCCA7ugAwIBAgIUbJ+s98C/FPCW7O+F1WdzS9t0ZUYwDQYJKoZIhvcNAQEL
BQAwbTELMAkGA1UEBhMCRVMxEjAQBgNVBAgMCUJhcmNlbG9uYTEdMBsGA1UECgwU
TmV0d29yayBTZWN1cml0eSBPcmcxFjAUBgNVBAsMDUNlcnRpZmljYXRpb24xEzAR
BgNVBAMMCk5TIFJvb3QgQ0EwHhcNMjIwMjE0MTQyNzQyWhcNMjMwMjE0MTQyNzQy
WjBjMQswCQYDVQQGEwJFUzESMBAGA1UECAwJQmFyY2Vsb25hMR0wGwYDVQQKDBRO
ZXR3b3JrIFNlY3VyaXR5IE9yZzENMAsGA1UECwwET0NTUDESMBAGA1UEAwwJMTAu
MC4yLjE1MIICIjANBgkqhkiG9w0BAQEFAAOCAg8AMIICCgKCAgEAvtWMUvJWQUhX
Q8o5I18+cTMKe/TgOk+cXegWGoJr97jYrdVvfB+kM16c5Fxhln9CgIsxgE6Q7M6g
igMT1EbUCe2QzvDjPWXXJBkKT3V0wGASjFCzeDfOw0fbueC3VE3K2xeV/dBeeRQL
L5rzr9a9WGUD324Ba3B9qMNTNbY8YTbvY0EnlLesnnyQEPJub5nrljw/N4I0qs30
NMFGC2SyJNfosBeAO0CAFNF91SFfiqdbKrz8gHP3IJa84kG6Y+lglBJmi63kWsRQ
XR63xqTzY3/e/ZcNXL6SAIm2F0dYAqv/nT6nXvtZJ5c6LuQuKZXumGFEsf9nuzMw
d2SHOVzwvjA6DXU+2FMrlhF07NiRRBBCN1U1emL+HeUaDPcj97lwBCj5zIZz4Wiw
HTvyxC2mj05Kj/efn1cLHOl20fQim8f2IIRvyyfwz+lpG28SzaPwEE7SzRxW/2/3
CoCsTqzgBPB+2ReqYUzw5Xuunlh9bVqVkpInWn3ppJmXAFVIte2bVbSLznsGmaRO
+XGLjgEnTRNPRWEx/iUuN0JppDxQZevniZCI3EjgVTcHy/GaUjCajXui2HwQF7QN
wf78rpihag4pdb4njum5+BRjGITBP8V//AtvG+Q8rBtiwVRC+Znd27alE44LkHi4
IvLbsaq5aMmMhGvTWQ9bobRB3gTwldMCAwEAAaN1MHMwCQYDVR0TBAIwADAdBgNV
HQ4EFgQUe9ZmzrKV3382RiwfTk6GT4fd1qMwHwYDVR0jBBgwFoAUo1h9j3BB6pIx
3jvnC3FKq+2I3icwDgYDVR0PAQH/BAQDAgeAMBYGA1UdJQEB/wQMMAoGCCsGAQUF
BwMJMA0GCSqGSIb3DQEBCwUAA4ICAQBORcw/TxZIKX5/hZ9b30or1XdLAGeMlrkN
V+wrXI7/uflS+eaS1N/HSJNGLffS7/fQk1uN30B2jEURMNziBoK06jf1ULoje9CM
pJEcXLC6ITKimd6+V97O8qoOCzwooAXwrYJzSIslj0CNLE5T88voRU/mOYuwaCI6
nMORRIaPK7k/O9SKMJG1MP0X3Cj8nxd706jZoYP/w14fN6yguTh6TObVJlf2VTSj
cecuEYGuLzLtS49CEyQdspCuCedhVtFO3tZCLbkoCxQJA7MwSVr4Uu+23j/AW/sR
WvAOSSm6vdzj1oIlVMRseDlcL3gdQWtJwgln07xgvgp18nn/woC+MW/TeX76Ket5
xlQhws1ugZldMGt7Jo4rbswtRBApUCiBC3KNlJ6qakPrZ6JF62CBfGMNNGiCrJN3
mIhWTFu8PLlxx8QzJlZmZL0OUJHUBfJgtdjmbF1b9gHmawK8q7zhYTy/XXlkqgRz
AM4j8wMTC7ZooWTrs7RtAU+1rn2teqO3qhLaJDraMS7SO8yeAU4NCyGv8BUSMBZM
yqQznlpFUtl77jhuS/JtdQJaqqP6sLNhU658w3kiJmBr77ULcVTI7c5y2whx0Q3w
NuBR07Z0du7y5IsQ0/OGJL2Xuhw5f1LFhpgS81lUP0DehmpajWFDqDqhhkt0epgi
fuLqcldOSA==
-----END CERTIFICATE-----
