Certificate:
    Data:
        Version: 3 (0x2)
        Serial Number:
            6c:9f:ac:f7:c0:bf:14:f0:96:ec:ef:85:d5:67:73:4b:db:74:65:4a
        Signature Algorithm: sha256WithRSAEncryption
        Issuer: C=ES, ST=Barcelona, O=Network Security Org, OU=Certification, CN=NS Root CA
        Validity
            Not Before: May 28 13:32:58 2022 GMT
            Not After : May 28 13:32:58 2023 GMT
        Subject: C=ES, ST=Barcelona, O=Network Security Org, OU=Supplicant, CN=Supplicant
        Subject Public Key Info:
            Public Key Algorithm: rsaEncryption
                RSA Public-Key: (2048 bit)
                Modulus:
                    00:c5:ac:b7:6c:ba:55:24:e2:a8:8a:8b:47:4c:f3:
                    1b:a6:b5:74:05:62:1d:95:77:54:07:f4:6f:35:77:
                    c8:f3:9a:67:2b:0b:12:c7:48:0f:97:f7:56:8a:ea:
                    27:9e:ce:6d:c7:a9:a4:7d:a1:73:09:74:fb:2b:32:
                    7b:f2:43:a4:c8:f5:03:42:2e:a4:a6:af:6a:5f:28:
                    77:dd:06:c6:e2:ae:7e:22:34:fa:c2:5b:dd:9c:8f:
                    b5:91:5a:36:10:3a:31:76:cb:8c:11:f8:70:ab:d1:
                    e2:06:df:50:db:04:fe:52:26:7f:f8:d7:ff:09:cc:
                    d6:e3:e7:07:b6:69:bc:87:51:1a:4c:d7:12:33:f2:
                    67:be:5f:ea:07:0b:a4:a8:b6:48:b5:f5:a6:26:33:
                    24:f8:11:d5:71:c9:66:32:b6:93:51:83:79:f7:9e:
                    33:a2:8f:b3:df:8c:57:d9:34:af:91:89:af:95:a6:
                    38:ef:f7:34:e5:9e:cc:dc:4d:b0:ac:42:5d:be:41:
                    73:cb:32:cb:fe:72:7f:03:a3:59:30:27:2f:19:b7:
                    85:fa:c7:15:d8:69:68:89:77:ba:ac:37:78:88:01:
                    d8:3e:b8:72:a4:36:75:27:60:d4:ae:a9:08:ea:66:
                    cc:db:72:e9:18:f9:99:5d:de:ea:77:27:73:3b:aa:
                    7e:49
                Exponent: 65537 (0x10001)
        X509v3 extensions:
            X509v3 Extended Key Usage: 
                TLS Web Client Authentication
    Signature Algorithm: sha256WithRSAEncryption
         06:45:e6:7d:27:a6:5e:08:37:09:ce:9f:b3:65:96:6d:3d:64:
         67:5b:86:3c:05:b4:01:0f:56:32:9c:32:3e:af:52:ef:d7:c6:
         42:07:69:9b:5a:e3:4a:6f:de:5f:5c:b3:2b:d1:43:b8:23:a5:
         dd:4f:66:36:88:52:be:ee:ca:12:58:c1:5f:03:99:5c:30:a6:
         1f:a0:95:9c:85:9f:69:9a:3c:b6:66:20:11:a6:70:de:67:48:
         7c:58:37:9c:a3:12:31:9f:08:ab:07:3a:c8:70:82:9b:a4:2c:
         15:97:df:65:d5:42:5b:c8:7d:89:c6:20:89:c1:38:82:4f:c8:
         11:e4:e0:4d:a8:78:67:bc:17:e3:c9:dd:4f:dc:f3:81:1a:26:
         38:06:95:14:0b:ef:63:1e:b2:3d:14:b1:2b:6c:27:c5:3e:5a:
         bb:a5:5d:07:ba:6a:a3:3e:85:5e:93:91:44:04:e2:cd:4d:15:
         7c:dc:e5:40:a4:fa:76:f7:50:d0:83:f7:b4:a2:f1:6c:4b:df:
         3e:8b:af:af:3e:c8:b3:24:24:dd:0b:dd:3e:09:a1:0f:42:98:
         a3:0a:a8:41:e9:f1:58:ba:c9:9f:55:3d:cd:2e:3f:4e:59:3d:
         2c:de:a9:a0:48:07:8c:de:a6:56:af:33:9e:c7:0f:8f:f8:2b:
         a2:1f:52:36:87:ef:b0:aa:72:22:2c:2d:3c:eb:00:71:e6:8c:
         91:e4:7e:39:dc:9c:7b:a2:e0:f8:b8:50:9a:6c:bd:ea:39:43:
         a0:6c:e7:36:a4:8d:cb:1c:b6:cd:0e:10:c8:6e:93:6f:1a:09:
         5c:90:16:da:ee:2d:37:d5:36:54:d6:5e:d9:ae:7a:04:64:6f:
         fc:18:66:db:3f:f7:4b:45:91:cc:e7:ce:98:7f:a9:e7:69:9b:
         30:e9:e8:e3:f4:6f:66:1c:c1:9c:7b:f9:b3:ce:ab:6c:b2:18:
         bc:5a:ea:b2:20:6a:87:46:2f:09:8d:f6:1c:0d:bb:e5:e8:b6:
         4c:bf:df:ec:d3:cb:3b:5a:aa:8e:16:c7:83:31:a7:89:9a:88:
         5a:ea:38:74:89:10:4f:32:f7:07:b4:ea:44:40:af:6d:e5:19:
         d8:10:4d:ab:dd:3a:48:ee:13:d1:0d:ab:82:4c:3e:dd:e6:5b:
         d4:19:6d:57:7b:31:6c:86:63:f3:26:16:8c:32:14:d9:10:9f:
         36:b9:c5:3f:f9:af:7c:d1:3d:b3:92:dc:14:d3:2f:0d:61:42:
         7b:31:e7:2b:df:ae:4c:ff:4b:53:56:20:d1:dc:4a:33:21:12:
         99:0d:d0:0e:f2:53:f6:ee:f9:9e:08:72:66:65:30:09:74:3d:
         fa:37:a8:6f:8b:7c:74:45
-----BEGIN CERTIFICATE-----
MIIEfDCCAmSgAwIBAgIUbJ+s98C/FPCW7O+F1WdzS9t0ZUowDQYJKoZIhvcNAQEL
BQAwbTELMAkGA1UEBhMCRVMxEjAQBgNVBAgMCUJhcmNlbG9uYTEdMBsGA1UECgwU
TmV0d29yayBTZWN1cml0eSBPcmcxFjAUBgNVBAsMDUNlcnRpZmljYXRpb24xEzAR
BgNVBAMMCk5TIFJvb3QgQ0EwHhcNMjIwNTI4MTMzMjU4WhcNMjMwNTI4MTMzMjU4
WjBqMQswCQYDVQQGEwJFUzESMBAGA1UECAwJQmFyY2Vsb25hMR0wGwYDVQQKDBRO
ZXR3b3JrIFNlY3VyaXR5IE9yZzETMBEGA1UECwwKU3VwcGxpY2FudDETMBEGA1UE
AwwKU3VwcGxpY2FudDCCASIwDQYJKoZIhvcNAQEBBQADggEPADCCAQoCggEBAMWs
t2y6VSTiqIqLR0zzG6a1dAViHZV3VAf0bzV3yPOaZysLEsdID5f3VorqJ57Obcep
pH2hcwl0+ysye/JDpMj1A0IupKaval8od90GxuKufiI0+sJb3ZyPtZFaNhA6MXbL
jBH4cKvR4gbfUNsE/lImf/jX/wnM1uPnB7ZpvIdRGkzXEjPyZ75f6gcLpKi2SLX1
piYzJPgR1XHJZjK2k1GDefeeM6KPs9+MV9k0r5GJr5WmOO/3NOWezNxNsKxCXb5B
c8syy/5yfwOjWTAnLxm3hfrHFdhpaIl3uqw3eIgB2D64cqQ2dSdg1K6pCOpmzNty
6Rj5mV3e6ncnczuqfkkCAwEAAaMXMBUwEwYDVR0lBAwwCgYIKwYBBQUHAwIwDQYJ
KoZIhvcNAQELBQADggIBAAZF5n0npl4INwnOn7Nllm09ZGdbhjwFtAEPVjKcMj6v
Uu/XxkIHaZta40pv3l9csyvRQ7gjpd1PZjaIUr7uyhJYwV8DmVwwph+glZyFn2ma
PLZmIBGmcN5nSHxYN5yjEjGfCKsHOshwgpukLBWX32XVQlvIfYnGIInBOIJPyBHk
4E2oeGe8F+PJ3U/c84EaJjgGlRQL72Mesj0UsStsJ8U+WrulXQe6aqM+hV6TkUQE
4s1NFXzc5UCk+nb3UNCD97Si8WxL3z6Lr68+yLMkJN0L3T4JoQ9CmKMKqEHp8Vi6
yZ9VPc0uP05ZPSzeqaBIB4zeplavM57HD4/4K6IfUjaH77CqciIsLTzrAHHmjJHk
fjncnHui4Pi4UJpsveo5Q6Bs5zakjcscts0OEMhuk28aCVyQFtruLTfVNlTWXtmu
egRkb/wYZts/90tFkcznzph/qedpmzDp6OP0b2YcwZx7+bPOq2yyGLxa6rIgaodG
LwmN9hwNu+Xotky/3+zTyztaqo4Wx4Mxp4maiFrqOHSJEE8y9we06kRAr23lGdgQ
TavdOkjuE9ENq4JMPt3mW9QZbVd7MWyGY/MmFowyFNkQnza5xT/5r3zRPbOS3BTT
Lw1hQnsx5yvfrkz/S1NWINHcSjMhEpkN0A7yU/bu+Z4IcmZlMAl0Pfo3qG+LfHRF
-----END CERTIFICATE-----
