Certificate:
    Data:
        Version: 3 (0x2)
        Serial Number:
            6c:9f:ac:f7:c0:bf:14:f0:96:ec:ef:85:d5:67:73:4b:db:74:65:48
        Signature Algorithm: sha256WithRSAEncryption
        Issuer: C=ES, ST=Barcelona, O=Network Security Org, OU=Certification, CN=NS Root CA
        Validity
            Not Before: Mar 14 16:05:02 2022 GMT
            Not After : Mar 14 16:05:02 2023 GMT
        Subject: C=ES, ST=Barcelona, O=Network Security Org, OU=Web Servers, CN=TLS Web Server
        Subject Public Key Info:
            Public Key Algorithm: rsaEncryption
                RSA Public-Key: (2048 bit)
                Modulus:
                    00:be:3a:27:bd:5e:6f:19:e4:2c:ca:ce:26:68:c4:
                    bd:fc:c5:be:21:a9:88:18:68:f3:e8:47:4b:85:3b:
                    cf:a6:bd:78:b3:c0:8f:83:8f:76:bf:05:96:71:9b:
                    d6:a8:5f:69:44:a5:8b:99:0f:f3:39:25:a9:f2:60:
                    25:41:48:8e:e6:12:20:f7:eb:9d:61:73:2d:76:cd:
                    8a:29:61:94:80:f0:22:8f:03:c5:86:97:93:d2:f4:
                    c3:ea:95:b8:86:2a:c0:21:8f:dc:c9:67:e6:3c:89:
                    aa:ac:5d:3a:0f:22:28:e4:e5:55:b5:87:49:50:e0:
                    77:d4:98:93:ac:bd:8b:32:89:2c:0a:db:a4:da:46:
                    d8:94:c4:74:7e:6a:8b:d6:3f:64:66:c1:73:d9:df:
                    2b:de:12:ba:da:b9:29:8f:6c:ff:98:37:d9:d0:a0:
                    2b:f0:01:36:cf:84:9e:5f:2d:66:3c:0c:12:0d:60:
                    22:08:7d:29:fd:e4:a6:22:cc:ac:41:5a:ff:a1:ba:
                    fe:68:a7:02:62:bf:82:bc:0f:b0:56:46:91:82:e7:
                    f4:b6:9a:3d:a5:97:b1:e1:e7:be:ba:ea:45:0a:3b:
                    17:41:f5:7e:a6:41:e4:bb:86:0a:d3:fe:05:10:7e:
                    b6:2c:86:bf:75:0d:50:b1:3e:9a:d1:44:c7:e9:0f:
                    14:e5
                Exponent: 65537 (0x10001)
        X509v3 extensions:
            X509v3 Basic Constraints: 
                CA:FALSE
            X509v3 Subject Key Identifier: 
                4D:E2:B1:CC:5C:25:D2:CB:E7:FA:6C:A2:15:47:31:27:86:58:DE:2C
            X509v3 Authority Key Identifier: 
                keyid:A3:58:7D:8F:70:41:EA:92:31:DE:3B:E7:0B:71:4A:AB:ED:88:DE:27

            Authority Information Access: 
                OCSP - URI:http://10.0.2.15

            X509v3 Key Usage: critical
                Digital Signature, Non Repudiation, Key Encipherment, Key Agreement
            X509v3 Extended Key Usage: critical
                TLS Web Server Authentication
            X509v3 Subject Alternative Name: 
                IP Address:10.0.2.15
    Signature Algorithm: sha256WithRSAEncryption
         34:8a:f0:f4:03:98:9f:f1:79:75:23:9c:2d:75:0d:2c:76:40:
         15:4c:4f:a5:41:2c:84:03:8e:e0:14:49:3e:23:63:91:03:d2:
         ce:5c:04:f9:65:b5:6a:18:2c:21:11:09:07:cc:25:88:e3:69:
         db:2a:1b:3a:fc:52:d6:5f:fb:cf:5f:0a:77:b9:dd:d2:8b:a2:
         c6:f1:ae:5a:cc:ff:be:94:46:dd:84:b2:2e:52:8b:23:94:da:
         ad:17:de:fd:ab:0d:e1:02:eb:9a:33:71:6a:e6:56:7b:8f:68:
         52:50:06:34:5c:27:cd:81:91:74:7a:44:84:34:c2:b9:a0:7a:
         9a:93:3b:da:44:29:c7:f1:63:7c:6b:fa:42:88:5a:aa:8b:9b:
         12:76:44:30:3b:65:7b:a2:06:5f:6b:04:f2:6d:ab:37:98:24:
         36:a1:e2:03:9a:ed:06:18:bb:cc:b5:5e:ac:f8:26:17:36:1e:
         4f:2f:8b:69:d7:48:43:c9:ad:7d:3d:06:92:b0:0f:bb:23:ea:
         98:64:31:62:e9:4b:07:60:43:2c:fc:e7:3b:27:ff:92:9d:90:
         d8:cd:8e:14:94:0a:cd:af:da:ab:03:c1:77:0c:eb:be:f7:ed:
         f5:4b:1e:eb:6c:04:14:2e:49:27:54:90:da:99:ee:b3:fe:78:
         ed:9c:bc:77:7f:ff:07:97:c2:07:d5:a8:5c:ff:41:b5:b1:15:
         0d:ba:38:3c:0f:af:16:29:2d:48:ad:77:58:0f:5a:99:eb:35:
         a7:a3:5b:60:67:62:49:bf:84:8d:44:c9:d8:3b:7e:aa:a4:f1:
         a1:45:8e:9c:ec:d6:ab:b2:57:6a:4a:b1:6b:29:2c:ec:2b:cb:
         ad:2e:3a:a9:e3:7b:0e:81:57:6b:0b:89:84:ba:ef:14:f2:49:
         8c:93:34:f9:34:39:68:4d:85:e3:ea:cb:64:c1:a5:d5:ec:59:
         32:98:4f:01:70:52:43:4e:85:e5:a4:2e:58:28:d9:23:ae:36:
         53:65:04:83:c8:06:4f:18:3d:26:74:20:ae:09:db:9d:09:8e:
         b0:eb:db:ae:01:2d:13:2f:1e:89:fd:89:60:70:70:48:4a:3d:
         98:e0:c8:c8:81:de:b4:e6:b4:ca:bd:0d:79:21:fa:c6:82:58:
         e0:6d:ea:2d:30:13:0b:1c:b8:2f:83:7b:9d:57:58:71:2a:1a:
         c3:33:89:ae:67:2d:e0:77:63:03:f6:a1:88:d7:c3:fb:fa:5e:
         aa:6f:2e:d7:f9:26:a4:7b:62:f6:4c:0e:d8:ea:00:38:c8:ae:
         46:e7:c6:64:78:d7:23:ed:fc:ba:99:36:f4:09:ea:74:f2:43:
         06:80:80:c3:bc:27:3a:ef
-----BEGIN CERTIFICATE-----
MIIFIDCCAwigAwIBAgIUbJ+s98C/FPCW7O+F1WdzS9t0ZUgwDQYJKoZIhvcNAQEL
BQAwbTELMAkGA1UEBhMCRVMxEjAQBgNVBAgMCUJhcmNlbG9uYTEdMBsGA1UECgwU
TmV0d29yayBTZWN1cml0eSBPcmcxFjAUBgNVBAsMDUNlcnRpZmljYXRpb24xEzAR
BgNVBAMMCk5TIFJvb3QgQ0EwHhcNMjIwMzE0MTYwNTAyWhcNMjMwMzE0MTYwNTAy
WjBvMQswCQYDVQQGEwJFUzESMBAGA1UECAwJQmFyY2Vsb25hMR0wGwYDVQQKDBRO
ZXR3b3JrIFNlY3VyaXR5IE9yZzEUMBIGA1UECwwLV2ViIFNlcnZlcnMxFzAVBgNV
BAMMDlRMUyBXZWIgU2VydmVyMIIBIjANBgkqhkiG9w0BAQEFAAOCAQ8AMIIBCgKC
AQEAvjonvV5vGeQsys4maMS9/MW+IamIGGjz6EdLhTvPpr14s8CPg492vwWWcZvW
qF9pRKWLmQ/zOSWp8mAlQUiO5hIg9+udYXMtds2KKWGUgPAijwPFhpeT0vTD6pW4
hirAIY/cyWfmPImqrF06DyIo5OVVtYdJUOB31JiTrL2LMoksCtuk2kbYlMR0fmqL
1j9kZsFz2d8r3hK62rkpj2z/mDfZ0KAr8AE2z4SeXy1mPAwSDWAiCH0p/eSmIsys
QVr/obr+aKcCYr+CvA+wVkaRguf0tpo9pZex4ee+uupFCjsXQfV+pkHku4YK0/4F
EH62LIa/dQ1QsT6a0UTH6Q8U5QIDAQABo4G1MIGyMAkGA1UdEwQCMAAwHQYDVR0O
BBYEFE3iscxcJdLL5/psohVHMSeGWN4sMB8GA1UdIwQYMBaAFKNYfY9wQeqSMd47
5wtxSqvtiN4nMCwGCCsGAQUFBwEBBCAwHjAcBggrBgEFBQcwAYYQaHR0cDovLzEw
LjAuMi4xNTAOBgNVHQ8BAf8EBAMCA+gwFgYDVR0lAQH/BAwwCgYIKwYBBQUHAwEw
DwYDVR0RBAgwBocECgACDzANBgkqhkiG9w0BAQsFAAOCAgEANIrw9AOYn/F5dSOc
LXUNLHZAFUxPpUEshAOO4BRJPiNjkQPSzlwE+WW1ahgsIREJB8wliONp2yobOvxS
1l/7z18Kd7nd0ouixvGuWsz/vpRG3YSyLlKLI5TarRfe/asN4QLrmjNxauZWe49o
UlAGNFwnzYGRdHpEhDTCuaB6mpM72kQpx/FjfGv6QohaqoubEnZEMDtle6IGX2sE
8m2rN5gkNqHiA5rtBhi7zLVerPgmFzYeTy+LaddIQ8mtfT0GkrAPuyPqmGQxYulL
B2BDLPznOyf/kp2Q2M2OFJQKza/aqwPBdwzrvvft9Use62wEFC5JJ1SQ2pnus/54
7Zy8d3//B5fCB9WoXP9BtbEVDbo4PA+vFiktSK13WA9ames1p6NbYGdiSb+EjUTJ
2Dt+qqTxoUWOnOzWq7JXakqxayks7CvLrS46qeN7DoFXawuJhLrvFPJJjJM0+TQ5
aE2F4+rLZMGl1exZMphPAXBSQ06F5aQuWCjZI642U2UEg8gGTxg9JnQgrgnbnQmO
sOvbrgEtEy8eif2JYHBwSEo9mODIyIHetOa0yr0NeSH6xoJY4G3qLTATCxy4L4N7
nVdYcSoawzOJrmct4HdjA/ahiNfD+/peqm8u1/kmpHti9kwO2OoAOMiuRufGZHjX
I+38upk29AnqdPJDBoCAw7wnOu8=
-----END CERTIFICATE-----
