Certificate:
    Data:
        Version: 3 (0x2)
        Serial Number:
            6c:9f:ac:f7:c0:bf:14:f0:96:ec:ef:85:d5:67:73:4b:db:74:65:49
        Signature Algorithm: sha256WithRSAEncryption
        Issuer: C=ES, ST=Barcelona, O=Network Security Org, OU=Certification, CN=NS Root CA
        Validity
            Not Before: May 28 13:30:50 2022 GMT
            Not After : May 28 13:30:50 2023 GMT
        Subject: C=ES, ST=Barcelona, O=Network Security Org, OU=Radius, CN=Radius
        Subject Public Key Info:
            Public Key Algorithm: rsaEncryption
                RSA Public-Key: (2048 bit)
                Modulus:
                    00:bd:dd:68:d0:71:fd:e4:b5:46:e8:8a:ec:19:5e:
                    2f:f1:b7:19:37:f6:0c:66:3f:6d:ef:6e:b4:79:91:
                    27:af:9d:53:1d:45:59:8d:e6:b7:90:e3:19:ef:ed:
                    5e:98:17:d7:95:c8:6f:25:8c:74:7c:44:67:2f:72:
                    f0:85:01:c0:e4:83:b7:64:31:39:a0:e2:33:49:3b:
                    24:3c:bc:1e:b2:38:c8:93:e8:ec:6b:13:04:f6:bc:
                    fd:9e:d5:8b:5f:14:ec:66:9d:38:4c:91:ea:f8:86:
                    e9:8a:06:d7:42:5c:ae:04:6a:51:da:a1:da:a9:cb:
                    b4:86:6e:fd:f7:08:b5:a0:a7:25:35:85:1b:dd:cf:
                    3a:06:ee:c9:f4:92:e8:b1:aa:3a:1d:9d:72:1d:d5:
                    df:10:e5:55:48:cd:ee:3d:7a:88:4e:53:69:23:2a:
                    4f:ce:14:a3:fb:ec:00:2f:94:b6:de:2a:c3:4c:93:
                    60:85:62:a8:e2:be:97:bd:da:69:5b:9e:2d:45:68:
                    24:9d:9b:e1:a4:8f:35:c5:c4:17:9f:66:a4:f0:bd:
                    fe:80:35:91:c6:fc:f0:ba:ce:fd:29:89:d8:6f:df:
                    e1:f5:7e:f9:6f:67:cf:29:63:99:b2:f7:bd:bb:ed:
                    1c:8b:80:c0:bb:3f:5e:fb:78:a6:da:47:d5:56:a9:
                    36:5f
                Exponent: 65537 (0x10001)
        X509v3 extensions:
            X509v3 Extended Key Usage: 
                TLS Web Server Authentication
    Signature Algorithm: sha256WithRSAEncryption
         9c:bb:a4:fd:7c:40:af:f0:36:66:2f:14:b9:8c:30:e8:ac:cd:
         15:0d:6d:19:17:df:3a:a4:96:b5:06:9b:76:5f:5c:f3:26:3a:
         a2:3f:6f:d2:44:00:3c:c4:6c:6f:90:38:06:09:53:3c:b0:e4:
         0a:fb:9d:ca:f5:94:2c:9a:68:ca:a4:f8:cb:94:eb:f8:67:77:
         b5:eb:00:62:23:40:cc:fa:f2:56:27:05:fd:af:07:98:14:00:
         7c:35:b4:9f:9e:ba:0f:fa:f6:f9:ce:60:3a:66:68:f1:71:72:
         10:de:86:6d:83:d1:50:35:59:b2:37:6c:42:01:c3:22:a5:92:
         c4:86:44:af:67:d7:43:dc:4d:44:6b:c2:d5:44:5b:58:ef:a1:
         7e:ae:22:b0:a8:7e:b6:d2:a3:de:63:26:9b:a5:df:ff:94:f7:
         fc:3f:54:06:f0:20:a7:80:56:70:18:67:4a:47:da:00:79:46:
         8b:1d:e4:e4:99:01:d1:0f:d1:eb:13:4a:84:a0:9e:e8:c1:58:
         61:be:9c:67:cc:f7:53:45:20:bd:42:0f:86:3d:c9:06:db:3e:
         e9:f3:eb:c8:47:c4:72:d8:b0:a7:60:53:9e:17:3d:a8:ed:9f:
         e4:0a:c1:ab:39:89:e7:32:62:a4:c2:a2:7f:29:f8:de:34:83:
         de:59:8c:bd:5d:ce:8d:b2:27:5b:d6:bf:14:34:b5:f4:ac:8a:
         5b:ba:b6:fa:1a:12:25:c5:2b:41:ae:41:f4:1b:98:34:c8:38:
         85:5d:a0:b1:30:fe:6e:0c:1e:7a:9c:29:22:e5:ed:21:58:33:
         82:18:af:d9:d4:62:ea:34:87:fd:f7:44:95:f3:89:bc:95:60:
         f5:e9:f5:a6:57:ed:30:80:3b:c9:47:b2:6c:d3:93:b4:17:2d:
         d9:7d:d3:4e:d7:67:6d:c6:e7:5d:85:96:c8:b6:f8:62:9c:17:
         a7:13:1e:d4:58:c3:11:fd:f4:05:18:da:3b:e2:71:4e:02:65:
         c7:4d:68:98:c4:18:cb:c0:ce:d0:fd:15:5a:31:07:62:8b:d5:
         66:9d:e4:3c:de:79:fc:01:f1:0e:58:86:20:ba:a6:47:dd:22:
         67:fc:99:70:ee:a4:b7:66:e8:f4:94:d9:98:ed:a9:33:d9:cf:
         50:c2:3e:5c:1c:99:98:e4:69:ae:0a:38:17:ea:7b:b7:19:61:
         40:df:50:38:69:cb:f9:ab:e2:0b:29:4d:02:0b:36:96:2c:51:
         94:e7:e4:1f:b6:fc:72:1c:12:86:4a:10:be:a5:f6:75:ee:94:
         02:e1:6c:a9:c1:06:e1:b4:17:01:18:56:7b:96:97:a6:8a:45:
         69:8c:7f:89:9e:aa:45:4d
-----BEGIN CERTIFICATE-----
MIIEdDCCAlygAwIBAgIUbJ+s98C/FPCW7O+F1WdzS9t0ZUkwDQYJKoZIhvcNAQEL
BQAwbTELMAkGA1UEBhMCRVMxEjAQBgNVBAgMCUJhcmNlbG9uYTEdMBsGA1UECgwU
TmV0d29yayBTZWN1cml0eSBPcmcxFjAUBgNVBAsMDUNlcnRpZmljYXRpb24xEzAR
BgNVBAMMCk5TIFJvb3QgQ0EwHhcNMjIwNTI4MTMzMDUwWhcNMjMwNTI4MTMzMDUw
WjBiMQswCQYDVQQGEwJFUzESMBAGA1UECAwJQmFyY2Vsb25hMR0wGwYDVQQKDBRO
ZXR3b3JrIFNlY3VyaXR5IE9yZzEPMA0GA1UECwwGUmFkaXVzMQ8wDQYDVQQDDAZS
YWRpdXMwggEiMA0GCSqGSIb3DQEBAQUAA4IBDwAwggEKAoIBAQC93WjQcf3ktUbo
iuwZXi/xtxk39gxmP23vbrR5kSevnVMdRVmN5reQ4xnv7V6YF9eVyG8ljHR8RGcv
cvCFAcDkg7dkMTmg4jNJOyQ8vB6yOMiT6OxrEwT2vP2e1YtfFOxmnThMker4humK
BtdCXK4EalHaodqpy7SGbv33CLWgpyU1hRvdzzoG7sn0kuixqjodnXId1d8Q5VVI
ze49eohOU2kjKk/OFKP77AAvlLbeKsNMk2CFYqjivpe92mlbni1FaCSdm+GkjzXF
xBefZqTwvf6ANZHG/PC6zv0pidhv3+H1fvlvZ88pY5my97277RyLgMC7P177eKba
R9VWqTZfAgMBAAGjFzAVMBMGA1UdJQQMMAoGCCsGAQUFBwMBMA0GCSqGSIb3DQEB
CwUAA4ICAQCcu6T9fECv8DZmLxS5jDDorM0VDW0ZF986pJa1Bpt2X1zzJjqiP2/S
RAA8xGxvkDgGCVM8sOQK+53K9ZQsmmjKpPjLlOv4Z3e16wBiI0DM+vJWJwX9rweY
FAB8NbSfnroP+vb5zmA6ZmjxcXIQ3oZtg9FQNVmyN2xCAcMipZLEhkSvZ9dD3E1E
a8LVRFtY76F+riKwqH620qPeYyabpd//lPf8P1QG8CCngFZwGGdKR9oAeUaLHeTk
mQHRD9HrE0qEoJ7owVhhvpxnzPdTRSC9Qg+GPckG2z7p8+vIR8Ry2LCnYFOeFz2o
7Z/kCsGrOYnnMmKkwqJ/KfjeNIPeWYy9Xc6Nsidb1r8UNLX0rIpburb6GhIlxStB
rkH0G5g0yDiFXaCxMP5uDB56nCki5e0hWDOCGK/Z1GLqNIf990SV84m8lWD16fWm
V+0wgDvJR7Js05O0Fy3ZfdNO12dtxuddhZbItvhinBenEx7UWMMR/fQFGNo74nFO
AmXHTWiYxBjLwM7Q/RVaMQdii9VmneQ83nn8AfEOWIYguqZH3SJn/Jlw7qS3Zuj0
lNmY7akz2c9Qwj5cHJmY5GmuCjgX6nu3GWFA31A4acv5q+ILKU0CCzaWLFGU5+Qf
tvxyHBKGShC+pfZ17pQC4WypwQbhtBcBGFZ7lpemikVpjH+JnqpFTQ==
-----END CERTIFICATE-----
