Certificate:
    Data:
        Version: 3 (0x2)
        Serial Number:
            6c:9f:ac:f7:c0:bf:14:f0:96:ec:ef:85:d5:67:73:4b:db:74:65:45
        Signature Algorithm: sha256WithRSAEncryption
        Issuer: C=ES, ST=Barcelona, O=Network Security Org, OU=Certification, CN=NS Root CA
        Validity
            Not Before: Feb 14 14:26:04 2022 GMT
            Not After : Feb 14 14:26:04 2032 GMT
        Subject: C=ES, ST=Barcelona, O=Network Security Org, OU=Certification, CN=NS Root CA
        Subject Public Key Info:
            Public Key Algorithm: rsaEncryption
                RSA Public-Key: (4096 bit)
                Modulus:
                    00:c6:aa:96:00:9b:87:29:1d:d2:0d:f8:ee:7d:fd:
                    60:9f:7f:2d:50:af:59:0a:71:84:ae:23:5c:11:e8:
                    1e:71:54:c4:c1:1e:67:e5:6f:dd:5c:9c:df:d1:eb:
                    12:38:3f:f7:42:19:46:e7:ae:c7:eb:7a:1e:5c:44:
                    95:78:6a:83:6f:d4:1a:5e:9b:67:0a:c2:f3:55:9e:
                    a9:58:62:c2:bd:32:a7:c3:a5:1e:76:a4:41:ec:f8:
                    42:b2:35:a3:f7:33:dd:af:59:89:07:72:12:c5:4b:
                    6c:06:4a:e0:a7:37:96:b3:7e:04:77:1a:c1:e8:50:
                    ec:f5:e5:64:72:d8:c6:5e:ea:81:f2:b6:87:8d:03:
                    29:ac:30:6d:f4:fb:54:cd:f3:0c:9d:e9:da:27:14:
                    bc:6e:4c:85:18:21:3f:04:b8:10:9a:18:bd:a2:b3:
                    e7:2e:e7:d7:46:b8:a1:7f:c1:08:29:dd:3a:d0:30:
                    ad:61:aa:c7:b5:bd:0d:23:6c:30:43:c0:2c:2d:ac:
                    0d:d0:45:f2:de:64:8c:a2:2c:78:0c:b8:f1:87:db:
                    52:24:bc:f9:92:a3:28:a3:ef:ad:aa:a9:8c:a4:bf:
                    6c:71:d0:d8:f0:9e:a1:42:d3:50:75:32:3b:a8:55:
                    23:e2:51:b4:51:ad:2f:0c:a4:47:ec:0c:af:a4:65:
                    63:27:a8:65:b2:fc:fe:3b:43:d6:2a:03:34:d1:92:
                    99:b1:1c:1b:62:ad:09:7c:f7:2e:ba:45:72:2e:1e:
                    55:fe:92:c5:fc:09:5a:d2:e4:d5:5b:29:9f:0e:04:
                    dc:1e:c5:c7:cf:41:15:b6:62:c5:b7:6d:d1:5b:bb:
                    84:1f:1a:46:43:b7:bc:e7:88:c4:20:c4:e1:11:b3:
                    8f:74:ab:e6:1c:86:e8:a8:b6:b7:7c:de:6e:cf:90:
                    de:73:8c:97:31:3b:02:a5:9f:ba:7d:16:35:02:ca:
                    66:8c:74:33:ca:5b:7e:77:33:c2:b7:d7:ec:23:10:
                    73:81:c9:0a:7c:00:a9:13:dc:69:94:a9:b9:11:73:
                    09:4e:57:a6:a8:d1:59:df:1a:a7:cf:ac:ef:5a:c1:
                    56:32:fb:c9:fc:83:e9:5c:75:24:ac:43:17:dc:8a:
                    c7:b4:25:33:e4:18:f7:1b:1a:06:d2:74:fa:c5:c7:
                    b5:3f:5f:98:89:af:c7:80:e7:80:1a:7f:3f:44:b9:
                    33:bd:fc:8b:96:32:8c:aa:ef:63:fa:69:6e:bf:62:
                    6e:21:f4:06:2b:ce:6f:48:30:cd:13:cb:1e:1a:f3:
                    8a:7a:68:44:3a:ff:5f:a6:28:f4:07:7c:22:6c:fa:
                    06:7d:e6:6f:2e:60:6b:25:12:ff:40:16:82:42:a5:
                    b1:51:6f
                Exponent: 65537 (0x10001)
        X509v3 extensions:
            X509v3 Subject Key Identifier: 
                A3:58:7D:8F:70:41:EA:92:31:DE:3B:E7:0B:71:4A:AB:ED:88:DE:27
            X509v3 Authority Key Identifier: 
                keyid:A3:58:7D:8F:70:41:EA:92:31:DE:3B:E7:0B:71:4A:AB:ED:88:DE:27

            X509v3 Basic Constraints: critical
                CA:TRUE
            X509v3 Key Usage: critical
                Certificate Sign, CRL Sign
    Signature Algorithm: sha256WithRSAEncryption
         73:0b:f2:40:10:2c:51:22:6b:22:4d:1a:35:c7:0a:96:c7:a4:
         8f:56:f5:e5:fc:0c:7f:72:e4:6e:96:11:82:09:1a:ca:d9:00:
         aa:5c:34:e1:8d:8a:65:0d:a3:5d:d3:7f:68:5a:e9:2e:c4:06:
         2d:eb:05:6c:88:6c:f0:98:99:40:1a:9c:cd:6f:84:99:ff:18:
         b4:7b:02:a0:88:8d:f7:f1:60:b6:21:db:a6:09:6c:9b:df:81:
         09:de:1b:ab:85:8c:a7:9d:0c:bf:fc:50:3d:1b:63:b3:50:b8:
         35:e7:d0:04:18:e3:be:44:ac:97:eb:8a:51:5e:a0:14:c1:b3:
         72:4b:02:73:b9:3b:8f:26:e3:5d:05:7f:9f:c8:a7:ff:48:e3:
         a3:7b:5e:98:c9:e3:1b:0d:c9:cc:25:2b:1b:32:dd:b3:22:88:
         10:59:15:92:bc:bf:d4:43:12:08:92:e7:ca:3b:92:47:ab:de:
         45:3f:5e:6e:a1:2a:07:e0:61:6c:03:58:0d:a9:ec:ab:d2:bf:
         c2:3f:6d:31:a9:1d:15:8b:f5:5b:c1:ba:6d:25:04:bd:7b:1b:
         d0:64:75:de:23:cf:c3:ea:5b:66:e3:f7:bd:c2:cb:0e:f7:22:
         02:c6:b3:de:df:80:ce:47:8e:d3:79:3a:2d:35:46:c4:db:b8:
         6a:f6:6c:3d:ac:98:d6:8d:da:d5:f0:49:7e:14:75:4c:cd:cf:
         8f:82:fc:2f:e8:33:33:09:f8:f9:00:77:df:60:d0:22:54:b1:
         85:b0:ba:b1:95:36:eb:68:c7:be:ee:1f:46:00:c7:f4:1a:31:
         bb:62:52:9f:8d:db:4e:2a:3c:80:03:b4:7d:36:47:89:77:d8:
         59:7b:36:c3:bd:5b:30:7d:39:d8:99:2c:45:c7:98:06:e0:73:
         54:d8:b8:83:2d:b2:51:b1:8f:50:70:3b:46:fd:79:1d:9b:bd:
         95:75:1f:47:89:17:cd:f8:e4:ef:87:d9:e2:6a:ef:44:af:2e:
         3a:27:0b:10:af:96:ea:22:40:36:34:33:08:5a:31:e5:1f:f5:
         8d:be:8a:72:9a:df:4b:e1:fc:05:f1:93:14:6d:ea:6a:4a:74:
         db:14:41:04:11:16:c6:81:d5:64:5c:63:ae:ca:fc:60:55:2c:
         2c:59:81:d9:d7:02:c8:0f:c3:c7:9e:83:56:70:47:ff:97:2c:
         fb:4f:2d:53:0c:20:0c:6d:c9:ba:71:89:28:71:c3:77:8b:07:
         cc:ff:ec:d5:b9:ee:21:4d:c0:4d:84:11:a1:8c:0e:e5:67:7a:
         3a:41:e5:f4:20:04:16:df:05:1c:38:d6:37:e9:ff:c7:f9:2a:
         cc:76:bc:3f:5c:23:72:ab
-----BEGIN CERTIFICATE-----
MIIFyzCCA7OgAwIBAgIUbJ+s98C/FPCW7O+F1WdzS9t0ZUUwDQYJKoZIhvcNAQEL
BQAwbTELMAkGA1UEBhMCRVMxEjAQBgNVBAgMCUJhcmNlbG9uYTEdMBsGA1UECgwU
TmV0d29yayBTZWN1cml0eSBPcmcxFjAUBgNVBAsMDUNlcnRpZmljYXRpb24xEzAR
BgNVBAMMCk5TIFJvb3QgQ0EwHhcNMjIwMjE0MTQyNjA0WhcNMzIwMjE0MTQyNjA0
WjBtMQswCQYDVQQGEwJFUzESMBAGA1UECAwJQmFyY2Vsb25hMR0wGwYDVQQKDBRO
ZXR3b3JrIFNlY3VyaXR5IE9yZzEWMBQGA1UECwwNQ2VydGlmaWNhdGlvbjETMBEG
A1UEAwwKTlMgUm9vdCBDQTCCAiIwDQYJKoZIhvcNAQEBBQADggIPADCCAgoCggIB
AMaqlgCbhykd0g347n39YJ9/LVCvWQpxhK4jXBHoHnFUxMEeZ+Vv3Vyc39HrEjg/
90IZRueux+t6HlxElXhqg2/UGl6bZwrC81WeqVhiwr0yp8OlHnakQez4QrI1o/cz
3a9ZiQdyEsVLbAZK4Kc3lrN+BHcawehQ7PXlZHLYxl7qgfK2h40DKawwbfT7VM3z
DJ3p2icUvG5MhRghPwS4EJoYvaKz5y7n10a4oX/BCCndOtAwrWGqx7W9DSNsMEPA
LC2sDdBF8t5kjKIseAy48YfbUiS8+ZKjKKPvraqpjKS/bHHQ2PCeoULTUHUyO6hV
I+JRtFGtLwykR+wMr6RlYyeoZbL8/jtD1ioDNNGSmbEcG2KtCXz3LrpFci4eVf6S
xfwJWtLk1Vspnw4E3B7Fx89BFbZixbdt0Vu7hB8aRkO3vOeIxCDE4RGzj3Sr5hyG
6Ki2t3zebs+Q3nOMlzE7AqWfun0WNQLKZox0M8pbfnczwrfX7CMQc4HJCnwAqRPc
aZSpuRFzCU5XpqjRWd8ap8+s71rBVjL7yfyD6Vx1JKxDF9yKx7QlM+QY9xsaBtJ0
+sXHtT9fmImvx4DngBp/P0S5M738i5YyjKrvY/ppbr9ibiH0BivOb0gwzRPLHhrz
inpoRDr/X6Yo9Ad8Imz6Bn3mby5gayUS/0AWgkKlsVFvAgMBAAGjYzBhMB0GA1Ud
DgQWBBSjWH2PcEHqkjHeO+cLcUqr7YjeJzAfBgNVHSMEGDAWgBSjWH2PcEHqkjHe
O+cLcUqr7YjeJzAPBgNVHRMBAf8EBTADAQH/MA4GA1UdDwEB/wQEAwIBBjANBgkq
hkiG9w0BAQsFAAOCAgEAcwvyQBAsUSJrIk0aNccKlsekj1b15fwMf3LkbpYRggka
ytkAqlw04Y2KZQ2jXdN/aFrpLsQGLesFbIhs8JiZQBqczW+Emf8YtHsCoIiN9/Fg
tiHbpglsm9+BCd4bq4WMp50Mv/xQPRtjs1C4NefQBBjjvkSsl+uKUV6gFMGzcksC
c7k7jybjXQV/n8in/0jjo3temMnjGw3JzCUrGzLdsyKIEFkVkry/1EMSCJLnyjuS
R6veRT9ebqEqB+BhbANYDansq9K/wj9tMakdFYv1W8G6bSUEvXsb0GR13iPPw+pb
ZuP3vcLLDvciAsaz3t+AzkeO03k6LTVGxNu4avZsPayY1o3a1fBJfhR1TM3Pj4L8
L+gzMwn4+QB332DQIlSxhbC6sZU262jHvu4fRgDH9Boxu2JSn43bTio8gAO0fTZH
iXfYWXs2w71bMH052JksRceYBuBzVNi4gy2yUbGPUHA7Rv15HZu9lXUfR4kXzfjk
74fZ4mrvRK8uOicLEK+W6iJANjQzCFox5R/1jb6KcprfS+H8BfGTFG3qakp02xRB
BBEWxoHVZFxjrsr8YFUsLFmB2dcCyA/Dx56DVnBH/5cs+08tUwwgDG3JunGJKHHD
d4sHzP/s1bnuIU3ATYQRoYwO5Wd6OkHl9CAEFt8FHDjWN+n/x/kqzHa8P1wjcqs=
-----END CERTIFICATE-----
