Certificate:
    Data:
        Version: 3 (0x2)
        Serial Number:
            6c:9f:ac:f7:c0:bf:14:f0:96:ec:ef:85:d5:67:73:4b:db:74:65:47
        Signature Algorithm: sha256WithRSAEncryption
        Issuer: C=ES, ST=Barcelona, O=Network Security Org, OU=Certification, CN=NS Root CA
        Validity
            Not Before: Mar 14 14:09:10 2022 GMT
            Not After : Mar 14 14:09:10 2023 GMT
        Subject: C=ES, ST=Barcelona, O=Network Security Org, OU=Web Server, CN=Web Server
        Subject Public Key Info:
            Public Key Algorithm: rsaEncryption
                RSA Public-Key: (2048 bit)
                Modulus:
                    00:a9:73:8d:1a:fa:b7:1b:71:01:64:be:5d:24:7b:
                    0d:9a:d1:b9:93:94:da:5e:1e:0b:6f:77:d6:6c:da:
                    4f:d8:6b:92:e6:05:9a:db:65:4f:9b:8a:16:f1:88:
                    31:2e:ac:fa:c8:78:46:f1:08:e2:45:e8:92:58:85:
                    ac:88:1e:04:c9:ae:50:81:a8:86:74:d0:8d:80:3f:
                    ac:7e:17:b1:57:29:96:d4:ed:68:e6:2d:21:1b:5c:
                    87:4d:95:2d:33:ad:13:e3:9e:87:62:9d:45:5d:0c:
                    14:96:bf:6f:1c:5a:a7:35:d2:13:16:97:e1:09:a9:
                    7f:8f:ec:12:82:33:59:c3:e2:5b:c1:1b:2e:81:6f:
                    d5:0e:af:61:0d:ca:9c:5e:16:5b:cf:eb:51:a5:04:
                    a6:48:75:b4:0e:a5:e8:2c:e5:8a:7a:b8:4a:d4:f2:
                    c2:17:44:51:31:de:9c:8f:24:87:45:af:8d:67:56:
                    87:47:bf:a6:e0:0d:1f:91:de:db:df:ee:4a:c1:b6:
                    92:a5:19:05:0a:22:92:2f:fb:40:7d:6d:35:7a:29:
                    d1:ec:2d:15:18:1c:86:8a:7e:2d:36:81:b0:bf:47:
                    cb:99:f0:02:22:e4:08:09:2e:1a:8a:29:54:08:25:
                    1e:1b:91:6c:fc:9a:c1:b1:d2:72:c2:f5:ff:7b:43:
                    11:0d
                Exponent: 65537 (0x10001)
        X509v3 extensions:
            X509v3 Basic Constraints: 
                CA:FALSE
            X509v3 Subject Key Identifier: 
                51:A6:9C:88:D0:32:6A:7A:80:A7:0D:31:8E:8A:15:3D:6E:2A:45:59
            X509v3 Authority Key Identifier: 
                keyid:A3:58:7D:8F:70:41:EA:92:31:DE:3B:E7:0B:71:4A:AB:ED:88:DE:27

            Authority Information Access: 
                OCSP - URI:http://10.0.2.15

            X509v3 Key Usage: critical
                Digital Signature, Non Repudiation, Key Encipherment, Key Agreement
            X509v3 Extended Key Usage: critical
                TLS Web Server Authentication
            X509v3 Subject Alternative Name: 
                IP Address:10.0.2.12
    Signature Algorithm: sha256WithRSAEncryption
         7e:09:f7:dd:e2:c1:a1:8d:1f:41:ba:d5:64:76:8b:4d:f7:7a:
         03:a5:90:05:0e:54:7d:1f:eb:f9:d4:84:d4:48:23:b0:46:2e:
         67:03:a9:66:45:34:5b:62:3c:17:59:1e:84:6a:fc:29:97:18:
         6f:80:91:67:96:84:a8:7e:9f:5b:bb:51:d6:6d:22:cd:90:84:
         fb:82:cd:39:f1:71:64:ac:8e:04:b2:fe:0c:4d:81:76:c3:ce:
         bf:8d:c0:47:60:92:3a:c5:98:2f:57:32:a2:1e:bf:d3:88:c7:
         90:cd:e7:c0:e6:f8:16:67:0a:f2:a6:eb:0b:b3:94:c4:0f:b3:
         72:72:7f:8e:da:f2:f4:77:df:30:59:2f:0e:16:59:47:24:8f:
         70:1f:1c:26:15:12:c2:46:df:2f:ea:7a:b7:49:6e:4a:af:a6:
         71:3b:39:99:ae:1e:63:de:3c:0c:c3:ac:b1:2a:aa:0d:42:22:
         fb:ca:61:0c:dc:28:54:b7:9f:cb:38:c4:c7:a4:32:b2:e7:af:
         d9:9f:c4:31:94:f0:10:52:f2:7d:b1:a1:8e:43:ae:3e:f5:d7:
         19:90:d3:d6:83:79:1f:dd:c6:1d:f1:ad:84:fd:a9:e2:05:bb:
         0e:ac:24:a2:5b:d8:e4:55:4e:e0:6d:18:1d:7b:06:2f:b6:7e:
         da:19:96:4d:e5:70:35:36:b5:a5:20:13:a5:3b:c7:f0:18:e7:
         68:ad:da:b5:72:97:bc:ff:6b:53:e4:da:e1:55:97:36:46:0f:
         4e:26:8d:f7:e3:72:14:7b:98:4a:23:f6:d2:2b:29:ce:54:7a:
         f3:d4:51:f6:0d:7d:6e:9f:d4:14:de:ef:92:10:b4:53:b6:6e:
         0b:f7:d6:74:93:59:26:5e:a3:7f:67:f8:47:b2:ae:8a:0f:ca:
         41:8f:6e:8d:a0:86:db:f8:06:c7:92:d5:2c:56:77:fb:04:d4:
         ca:0c:35:31:07:51:9a:1e:e0:e1:5c:2b:74:46:8a:31:a5:7e:
         94:32:64:03:0e:5e:42:4c:31:78:fc:3a:cc:3b:cd:6a:86:b8:
         0b:60:b6:1d:ee:f0:ae:21:60:9d:7a:4b:f8:74:dd:c7:95:66:
         ff:64:2d:f4:db:43:4e:66:64:a8:cf:c0:35:0f:da:04:61:b7:
         fc:a7:47:2a:7c:5d:ab:62:3b:4c:51:0e:71:f3:c1:ed:a9:98:
         c7:76:5b:4b:7e:f7:c3:69:30:31:2c:f6:a0:8a:74:5c:be:4b:
         e7:91:9a:c2:4f:d6:75:af:b8:25:b2:a8:57:54:13:17:2c:ef:
         87:58:d4:34:e1:e1:ec:95:79:7b:dc:16:f0:f7:f1:e0:f4:72:
         f9:ba:dc:c5:07:d7:a2:67
-----BEGIN CERTIFICATE-----
MIIFGzCCAwOgAwIBAgIUbJ+s98C/FPCW7O+F1WdzS9t0ZUcwDQYJKoZIhvcNAQEL
BQAwbTELMAkGA1UEBhMCRVMxEjAQBgNVBAgMCUJhcmNlbG9uYTEdMBsGA1UECgwU
TmV0d29yayBTZWN1cml0eSBPcmcxFjAUBgNVBAsMDUNlcnRpZmljYXRpb24xEzAR
BgNVBAMMCk5TIFJvb3QgQ0EwHhcNMjIwMzE0MTQwOTEwWhcNMjMwMzE0MTQwOTEw
WjBqMQswCQYDVQQGEwJFUzESMBAGA1UECAwJQmFyY2Vsb25hMR0wGwYDVQQKDBRO
ZXR3b3JrIFNlY3VyaXR5IE9yZzETMBEGA1UECwwKV2ViIFNlcnZlcjETMBEGA1UE
AwwKV2ViIFNlcnZlcjCCASIwDQYJKoZIhvcNAQEBBQADggEPADCCAQoCggEBAKlz
jRr6txtxAWS+XSR7DZrRuZOU2l4eC2931mzaT9hrkuYFmttlT5uKFvGIMS6s+sh4
RvEI4kXokliFrIgeBMmuUIGohnTQjYA/rH4XsVcpltTtaOYtIRtch02VLTOtE+Oe
h2KdRV0MFJa/bxxapzXSExaX4Qmpf4/sEoIzWcPiW8EbLoFv1Q6vYQ3KnF4WW8/r
UaUEpkh1tA6l6Czlinq4StTywhdEUTHenI8kh0WvjWdWh0e/puANH5He29/uSsG2
kqUZBQoiki/7QH1tNXop0ewtFRgchop+LTaBsL9Hy5nwAiLkCAkuGoopVAglHhuR
bPyawbHScsL1/3tDEQ0CAwEAAaOBtTCBsjAJBgNVHRMEAjAAMB0GA1UdDgQWBBRR
ppyI0DJqeoCnDTGOihU9bipFWTAfBgNVHSMEGDAWgBSjWH2PcEHqkjHeO+cLcUqr
7YjeJzAsBggrBgEFBQcBAQQgMB4wHAYIKwYBBQUHMAGGEGh0dHA6Ly8xMC4wLjIu
MTUwDgYDVR0PAQH/BAQDAgPoMBYGA1UdJQEB/wQMMAoGCCsGAQUFBwMBMA8GA1Ud
EQQIMAaHBAoAAgwwDQYJKoZIhvcNAQELBQADggIBAH4J993iwaGNH0G61WR2i033
egOlkAUOVH0f6/nUhNRII7BGLmcDqWZFNFtiPBdZHoRq/CmXGG+AkWeWhKh+n1u7
UdZtIs2QhPuCzTnxcWSsjgSy/gxNgXbDzr+NwEdgkjrFmC9XMqIev9OIx5DN58Dm
+BZnCvKm6wuzlMQPs3Jyf47a8vR33zBZLw4WWUckj3AfHCYVEsJG3y/qerdJbkqv
pnE7OZmuHmPePAzDrLEqqg1CIvvKYQzcKFS3n8s4xMekMrLnr9mfxDGU8BBS8n2x
oY5Drj711xmQ09aDeR/dxh3xrYT9qeIFuw6sJKJb2ORVTuBtGB17Bi+2ftoZlk3l
cDU2taUgE6U7x/AY52it2rVyl7z/a1Pk2uFVlzZGD04mjffjchR7mEoj9tIrKc5U
evPUUfYNfW6f1BTe75IQtFO2bgv31nSTWSZeo39n+EeyrooPykGPbo2ghtv4BseS
1SxWd/sE1MoMNTEHUZoe4OFcK3RGijGlfpQyZAMOXkJMMXj8Osw7zWqGuAtgth3u
8K4hYJ16S/h03ceVZv9kLfTbQ05mZKjPwDUP2gRht/ynRyp8XatiO0xRDnHzwe2p
mMd2W0t+98NpMDEs9qCKdFy+S+eRmsJP1nWvuCWyqFdUExcs74dY1DTh4eyVeXvc
FvD38eD0cvm63MUH16Jn
-----END CERTIFICATE-----
